target datalayout = "e-m:e-p270:32:32-p271:32:32-p272:64:64-i64:64-i128:128-f80:128-n8:16:32:64-S128"
target triple = "x86_64-pc-linux-gnu"

%struct.VLCElem = type { %union.anon.1 }
%union.anon.1 = type { %struct.anon }
%struct.anon = type { i16, i16 }
%struct.anon.2 = type { i16, i8, i8 }

@hq_ac_rvlc = internal global [1184 x %struct.VLCElem] zeroinitializer, align 16
@hq_quants = internal global [16 x [2 x [4 x ptr]]] zeroinitializer, align 16

; Function Attrs: cold nounwind optsize uwtable
define internal void @hq_init_static() #0 {
  %1 = alloca i64, align 8
  %2 = alloca i32, align 4
  %3 = alloca i32, align 4
  %4 = alloca i32, align 4
  %5 = alloca i64, align 8
  %6 = alloca i32, align 4
  %7 = alloca i64, align 8
  %8 = alloca i64, align 8
  call void @ff_vlc_init_table_from_lengths(ptr noundef @hq_ac_rvlc, i32 noundef 1184, i32 noundef 9, i32 noundef 747, ptr noundef @hq_ac_lens, i32 noundef 1, ptr noundef @hq_ac_sym, i32 noundef 2, i32 noundef 2, i32 noundef 0, i32 noundef 0)
  call void @llvm.lifetime.start.p0(i64 8, ptr %1) #9
  store i64 0, ptr %1, align 8, !tbaa !47
  br label %9

9:                                                ; preds = %52, %0
  %10 = load i64, ptr %1, align 8, !tbaa !47
  %11 = icmp ult i64 %10, 1184
  br i1 %11, label %13, label %12

12:                                               ; preds = %9
  call void @llvm.lifetime.end.p0(i64 8, ptr %1) #9
  br label %55

13:                                               ; preds = %9
  call void @llvm.lifetime.start.p0(i64 4, ptr %2) #9
  %14 = load i64, ptr %1, align 8, !tbaa !47
  %15 = getelementptr inbounds nuw [1184 x %struct.VLCElem], ptr @hq_ac_rvlc, i64 0, i64 %14
  %16 = getelementptr inbounds nuw %struct.VLCElem, ptr %15, i32 0, i32 0
  %17 = getelementptr inbounds nuw %struct.anon, ptr %16, i32 0, i32 1
  %18 = load i16, ptr %17, align 2, !tbaa !48
  %19 = sext i16 %18 to i32
  store i32 %19, ptr %2, align 4, !tbaa !44
  call void @llvm.lifetime.start.p0(i64 4, ptr %3) #9
  %20 = load i64, ptr %1, align 8, !tbaa !47
  %21 = getelementptr inbounds nuw [1184 x %struct.VLCElem], ptr @hq_ac_rvlc, i64 0, i64 %20
  %22 = getelementptr inbounds nuw %struct.VLCElem, ptr %21, i32 0, i32 0
  %23 = getelementptr inbounds nuw %struct.anon, ptr %22, i32 0, i32 0
  %24 = load i16, ptr %23, align 4, !tbaa !48
  %25 = sext i16 %24 to i32
  store i32 %25, ptr %3, align 4, !tbaa !44
  call void @llvm.lifetime.start.p0(i64 4, ptr %4) #9
  %26 = load i32, ptr %3, align 4, !tbaa !44
  store i32 %26, ptr %4, align 4, !tbaa !44
  %27 = load i32, ptr %2, align 4, !tbaa !44
  %28 = icmp sgt i32 %27, 0
  br i1 %28, label %29, label %39

29:                                               ; preds = %13
  %30 = load i32, ptr %3, align 4, !tbaa !44
  %31 = ashr i32 %30, 7
  store i32 %31, ptr %4, align 4, !tbaa !44
  %32 = load i32, ptr %3, align 4, !tbaa !44
  %33 = and i32 %32, 127
  %34 = trunc i32 %33 to i8
  %35 = load i64, ptr %1, align 8, !tbaa !47
  %36 = getelementptr inbounds nuw [1184 x %struct.VLCElem], ptr @hq_ac_rvlc, i64 0, i64 %35
  %37 = getelementptr inbounds nuw %struct.VLCElem, ptr %36, i32 0, i32 0
  %38 = getelementptr inbounds nuw %struct.anon.2, ptr %37, i32 0, i32 2
  store i8 %34, ptr %38, align 1, !tbaa !48
  br label %39

39:                                               ; preds = %29, %13
  %40 = load i32, ptr %2, align 4, !tbaa !44
  %41 = trunc i32 %40 to i8
  %42 = load i64, ptr %1, align 8, !tbaa !47
  %43 = getelementptr inbounds nuw [1184 x %struct.VLCElem], ptr @hq_ac_rvlc, i64 0, i64 %42
  %44 = getelementptr inbounds nuw %struct.VLCElem, ptr %43, i32 0, i32 0
  %45 = getelementptr inbounds nuw %struct.anon.2, ptr %44, i32 0, i32 1
  store i8 %41, ptr %45, align 2, !tbaa !48
  %46 = load i32, ptr %4, align 4, !tbaa !44
  %47 = trunc i32 %46 to i16
  %48 = load i64, ptr %1, align 8, !tbaa !47
  %49 = getelementptr inbounds nuw [1184 x %struct.VLCElem], ptr @hq_ac_rvlc, i64 0, i64 %48
  %50 = getelementptr inbounds nuw %struct.VLCElem, ptr %49, i32 0, i32 0
  %51 = getelementptr inbounds nuw %struct.anon.2, ptr %50, i32 0, i32 0
  store i16 %47, ptr %51, align 4, !tbaa !48
  call void @llvm.lifetime.end.p0(i64 4, ptr %4) #9
  call void @llvm.lifetime.end.p0(i64 4, ptr %3) #9
  call void @llvm.lifetime.end.p0(i64 4, ptr %2) #9
  br label %52

52:                                               ; preds = %39
  %53 = load i64, ptr %1, align 8, !tbaa !47
  %54 = add i64 %53, 1
  store i64 %54, ptr %1, align 8, !tbaa !47
  br label %9, !llvm.loop !49

55:                                               ; preds = %12
  call void @llvm.lifetime.start.p0(i64 8, ptr %5) #9
  store i64 0, ptr %5, align 8, !tbaa !47
  br label %56

56:                                               ; preds = %95, %55
  %57 = load i64, ptr %5, align 8, !tbaa !47
  %58 = icmp ult i64 %57, 16
  br i1 %58, label %60, label %59

59:                                               ; preds = %56
  store i32 5, ptr %6, align 4
  call void @llvm.lifetime.end.p0(i64 8, ptr %5) #9
  br label %98

60:                                               ; preds = %56
  call void @llvm.lifetime.start.p0(i64 8, ptr %7) #9
  store i64 0, ptr %7, align 8, !tbaa !47
  br label %61

61:                                               ; preds = %91, %60
  %62 = load i64, ptr %7, align 8, !tbaa !47
  %63 = icmp ult i64 %62, 2
  br i1 %63, label %65, label %64

64:                                               ; preds = %61
  store i32 8, ptr %6, align 4
  call void @llvm.lifetime.end.p0(i64 8, ptr %7) #9
  br label %94

65:                                               ; preds = %61
  call void @llvm.lifetime.start.p0(i64 8, ptr %8) #9
  store i64 0, ptr %8, align 8, !tbaa !47
  br label %66

66:                                               ; preds = %87, %65
  %67 = load i64, ptr %8, align 8, !tbaa !47
  %68 = icmp ult i64 %67, 4
  br i1 %68, label %70, label %69

69:                                               ; preds = %66
  store i32 11, ptr %6, align 4
  call void @llvm.lifetime.end.p0(i64 8, ptr %8) #9
  br label %90

70:                                               ; preds = %66
  %71 = load i64, ptr %5, align 8, !tbaa !47
  %72 = getelementptr inbounds nuw [16 x [2 x [4 x i8]]], ptr @hq_quant_map, i64 0, i64 %71
  %73 = load i64, ptr %7, align 8, !tbaa !47
  %74 = getelementptr inbounds nuw [2 x [4 x i8]], ptr %72, i64 0, i64 %73
  %75 = load i64, ptr %8, align 8, !tbaa !47
  %76 = getelementptr inbounds nuw [4 x i8], ptr %74, i64 0, i64 %75
  %77 = load i8, ptr %76, align 1, !tbaa !48
  %78 = zext i8 %77 to i64
  %79 = getelementptr inbounds nuw [78 x [64 x i32]], ptr @qmats, i64 0, i64 %78
  %80 = getelementptr inbounds [64 x i32], ptr %79, i64 0, i64 0
  %81 = load i64, ptr %5, align 8, !tbaa !47
  %82 = getelementptr inbounds nuw [16 x [2 x [4 x ptr]]], ptr @hq_quants, i64 0, i64 %81
  %83 = load i64, ptr %7, align 8, !tbaa !47
  %84 = getelementptr inbounds nuw [2 x [4 x ptr]], ptr %82, i64 0, i64 %83
  %85 = load i64, ptr %8, align 8, !tbaa !47
  %86 = getelementptr inbounds nuw [4 x ptr], ptr %84, i64 0, i64 %85
  store ptr %80, ptr %86, align 8, !tbaa !36
  br label %87

87:                                               ; preds = %70
  %88 = load i64, ptr %8, align 8, !tbaa !47
  %89 = add i64 %88, 1
  store i64 %89, ptr %8, align 8, !tbaa !47
  br label %66, !llvm.loop !51

90:                                               ; preds = %69
  br label %91

91:                                               ; preds = %90
  %92 = load i64, ptr %7, align 8, !tbaa !47
  %93 = add i64 %92, 1
  store i64 %93, ptr %7, align 8, !tbaa !47
  br label %61, !llvm.loop !52

94:                                               ; preds = %64
  br label %95

95:                                               ; preds = %94
  %96 = load i64, ptr %5, align 8, !tbaa !47
  %97 = add i64 %96, 1
  store i64 %97, ptr %5, align 8, !tbaa !47
  br label %56, !llvm.loop !53

98:                                               ; preds = %59
  ret void
}