; Function Attrs: cold nounwind optsize uwtable
define internal void @hq_init_static() #0 {
  tail call void @ff_vlc_init_table_from_lengths(ptr noundef nonnull @hq_ac_rvlc, i32 noundef 1184, i32 noundef 9, i32 noundef 747, ptr noundef nonnull @hq_ac_lens, i32 noundef 1, ptr noundef nonnull @hq_ac_sym, i32 noundef 2, i32 noundef 2, i32 noundef 0, i32 noundef 0) #6
  br label %1

1:                                                ; preds = %0, %12
  %.02831 = phi i64 [ 0, %0 ], [ %14, %12 ]
  %2 = getelementptr inbounds nuw [1184 x %struct.VLCElem], ptr @hq_ac_rvlc, i64 0, i64 %.02831
  %3 = getelementptr inbounds nuw i8, ptr %2, i64 2
  %4 = load i16, ptr %3, align 2, !tbaa !34
  %5 = load i16, ptr %2, align 4, !tbaa !34
  %6 = icmp sgt i16 %4, 0
  br i1 %6, label %7, label %12

7:                                                ; preds = %1
  %8 = ashr i16 %5, 7
  %9 = trunc i16 %5 to i8
  %10 = and i8 %9, 127
  %11 = getelementptr inbounds nuw i8, ptr %2, i64 3
  store i8 %10, ptr %11, align 1, !tbaa !34
  br label %12

12:                                               ; preds = %7, %1
  %.027 = phi i16 [ %8, %7 ], [ %5, %1 ]
  %13 = trunc i16 %4 to i8
  store i8 %13, ptr %3, align 2, !tbaa !34
  store i16 %.027, ptr %2, align 4, !tbaa !34
  %14 = add nuw nsw i64 %.02831, 1
  %exitcond.not = icmp eq i64 %14, 1184
  br i1 %exitcond.not, label %.preheader29, label %1, !llvm.loop !65

.preheader29:                                     ; preds = %12, %17
  %.02634 = phi i64 [ %18, %17 ], [ 0, %12 ]
  br label %.preheader

15:                                               ; preds = %17
  ret void

.preheader:                                       ; preds = %.preheader29, %19
  %16 = phi i1 [ true, %.preheader29 ], [ false, %19 ]
  %.02533 = phi i64 [ 0, %.preheader29 ], [ 1, %19 ]
  br label %20

17:                                               ; preds = %19
  %18 = add nuw nsw i64 %.02634, 1
  %exitcond36.not = icmp eq i64 %18, 16
  br i1 %exitcond36.not, label %15, label %.preheader29, !llvm.loop !66

19:                                               ; preds = %20
  br i1 %16, label %.preheader, label %17, !llvm.loop !67

20:                                               ; preds = %.preheader, %20
  %.032 = phi i64 [ 0, %.preheader ], [ %26, %20 ]
  %21 = getelementptr inbounds nuw [16 x [2 x [4 x i8]]], ptr @hq_quant_map, i64 0, i64 %.02634, i64 %.02533, i64 %.032
  %22 = load i8, ptr %21, align 1, !tbaa !34
  %23 = zext i8 %22 to i64
  %24 = getelementptr inbounds nuw [78 x [64 x i32]], ptr @qmats, i64 0, i64 %23
  %25 = getelementptr inbounds nuw [16 x [2 x [4 x ptr]]], ptr @hq_quants, i64 0, i64 %.02634, i64 %.02533, i64 %.032
  store ptr %24, ptr %25, align 8, !tbaa !54
  %26 = add nuw nsw i64 %.032, 1
  %exitcond35.not = icmp eq i64 %26, 4
  br i1 %exitcond35.not, label %19, label %20, !llvm.loop !68
}